target datalayout = "e-m:e-p270:32:32-p271:32:32-p272:64:64-i64:64-i128:128-f80:128-n8:16:32:64-S128"
target triple = "x86_64-pc-linux-gnu"

%struct._object = type { %union.anon, ptr }
%union.anon = type { i64 }
%struct.PyVarObject = type { %struct._object, i64 }
%struct._typeobject = type { %struct.PyVarObject, ptr, i64, i64, ptr, i64, ptr, ptr, ptr, ptr, ptr, ptr, ptr, ptr, ptr, ptr, ptr, ptr, ptr, i64, ptr, ptr, ptr, ptr, i64, ptr, ptr, ptr, ptr, ptr, ptr, ptr, ptr, ptr, i64, ptr, ptr, ptr, ptr, ptr, ptr, ptr, ptr, ptr, ptr, ptr, i32, ptr, ptr, i8, i16 }
%struct.Py_buffer = type { ptr, ptr, i64, i64, i32, i32, ptr, ptr, ptr, ptr, ptr }

@.str.7 = private unnamed_addr constant [14 x i8] c"escape_decode\00", align 1
@_Py_NoneStruct = external global %struct._object, align 8
@PyExc_ValueError = external global ptr, align 8
@.str.44 = private unnamed_addr constant [24 x i8] c"embedded null character\00", align 1
@.str.52 = private unnamed_addr constant [11 x i8] c"argument 2\00", align 1
@.str.53 = private unnamed_addr constant [12 x i8] c"str or None\00", align 1
@.str.55 = private unnamed_addr constant [3 x i8] c"Nn\00", align 1

; Function Attrs: nounwind uwtable
define internal ptr @codec_tuple(ptr noundef %0, i64 noundef %1) #0 {
  %3 = alloca ptr, align 8
  %4 = alloca ptr, align 8
  %5 = alloca i64, align 8
  store ptr %0, ptr %4, align 8, !tbaa !4
  store i64 %1, ptr %5, align 8, !tbaa !11
  %6 = load ptr, ptr %4, align 8, !tbaa !4
  %7 = icmp eq ptr %6, null
  br i1 %7, label %8, label %9

8:                                                ; preds = %2
  store ptr null, ptr %3, align 8
  br label %13

9:                                                ; preds = %2
  %10 = load ptr, ptr %4, align 8, !tbaa !4
  %11 = load i64, ptr %5, align 8, !tbaa !11
  %12 = call ptr (ptr, ...) @Py_BuildValue(ptr noundef @.str.55, ptr noundef %10, i64 noundef %11)
  store ptr %12, ptr %3, align 8
  br label %13

13:                                               ; preds = %9, %8
  %14 = load ptr, ptr %3, align 8
  ret ptr %14
}

; Function Attrs: nounwind uwtable
define internal ptr @_codecs_escape_decode_impl(ptr noundef %0, ptr noundef %1, ptr noundef %2) #0 {
  %4 = alloca ptr, align 8
  %5 = alloca ptr, align 8
  %6 = alloca ptr, align 8
  %7 = alloca ptr, align 8
  store ptr %0, ptr %4, align 8, !tbaa !4
  store ptr %1, ptr %5, align 8, !tbaa !31
  store ptr %2, ptr %6, align 8, !tbaa !9
  call void @llvm.lifetime.start.p0(i64 8, ptr %7) #6
  %8 = load ptr, ptr %5, align 8, !tbaa !31
  %9 = getelementptr inbounds nuw %struct.Py_buffer, ptr %8, i32 0, i32 0
  %10 = load ptr, ptr %9, align 8, !tbaa !36
  %11 = load ptr, ptr %5, align 8, !tbaa !31
  %12 = getelementptr inbounds nuw %struct.Py_buffer, ptr %11, i32 0, i32 2
  %13 = load i64, ptr %12, align 8, !tbaa !37
  %14 = load ptr, ptr %6, align 8, !tbaa !9
  %15 = call ptr @PyBytes_DecodeEscape(ptr noundef %10, i64 noundef %13, ptr noundef %14, i64 noundef 0, ptr noundef null)
  store ptr %15, ptr %7, align 8, !tbaa !4
  %16 = load ptr, ptr %7, align 8, !tbaa !4
  %17 = load ptr, ptr %5, align 8, !tbaa !31
  %18 = getelementptr inbounds nuw %struct.Py_buffer, ptr %17, i32 0, i32 2
  %19 = load i64, ptr %18, align 8, !tbaa !37
  %20 = call ptr @codec_tuple(ptr noundef %16, i64 noundef %19)
  call void @llvm.lifetime.end.p0(i64 8, ptr %7) #6
  ret ptr %20
}

; Function Attrs: inlinehint nounwind uwtable
define internal i32 @PyType_HasFeature(ptr noundef %0, i64 noundef %1) #3 {
  %3 = alloca ptr, align 8
  %4 = alloca i64, align 8
  %5 = alloca i64, align 8
  store ptr %0, ptr %3, align 8, !tbaa !20
  store i64 %1, ptr %4, align 8, !tbaa !11
  call void @llvm.lifetime.start.p0(i64 8, ptr %5) #6
  %6 = load ptr, ptr %3, align 8, !tbaa !20
  %7 = getelementptr inbounds nuw %struct._typeobject, ptr %6, i32 0, i32 19
  %8 = load i64, ptr %7, align 8, !tbaa !22
  store i64 %8, ptr %5, align 8, !tbaa !11
  %9 = load i64, ptr %5, align 8, !tbaa !11
  %10 = load i64, ptr %4, align 8, !tbaa !11
  %11 = and i64 %9, %10
  %12 = icmp ne i64 %11, 0
  %13 = zext i1 %12 to i32
  call void @llvm.lifetime.end.p0(i64 8, ptr %5) #6
  ret i32 %13
}

; Function Attrs: inlinehint nounwind uwtable
define internal ptr @_Py_TYPE(ptr noundef %0) #3 {
  %2 = alloca ptr, align 8
  store ptr %0, ptr %2, align 8, !tbaa !4
  %3 = load ptr, ptr %2, align 8, !tbaa !4
  %4 = getelementptr inbounds nuw %struct._object, ptr %3, i32 0, i32 1
  %5 = load ptr, ptr %4, align 8, !tbaa !30
  ret ptr %5
}

; Function Attrs: nounwind uwtable
define internal ptr @_codecs_escape_decode(ptr noundef %0, ptr noundef %1, i64 noundef %2) #0 {
  %4 = alloca ptr, align 8
  %5 = alloca ptr, align 8
  %6 = alloca ptr, align 8
  %7 = alloca i64, align 8
  %8 = alloca ptr, align 8
  %9 = alloca %struct.Py_buffer, align 8
  %10 = alloca ptr, align 8
  %11 = alloca i64, align 8
  %12 = alloca ptr, align 8
  %13 = alloca i32, align 4
  %14 = alloca i64, align 8
  store ptr %0, ptr %5, align 8, !tbaa !4
  store ptr %1, ptr %6, align 8, !tbaa !13
  store i64 %2, ptr %7, align 8, !tbaa !11
  call void @llvm.lifetime.start.p0(i64 8, ptr %8) #6
  store ptr null, ptr %8, align 8, !tbaa !4
  call void @llvm.lifetime.start.p0(i64 80, ptr %9) #6
  call void @llvm.memset.p0.i64(ptr align 8 %9, i8 0, i64 80, i1 false)
  call void @llvm.lifetime.start.p0(i64 8, ptr %10) #6
  store ptr null, ptr %10, align 8, !tbaa !9
  %15 = load i64, ptr %7, align 8, !tbaa !11
  %16 = icmp sle i64 1, %15
  br i1 %16, label %17, label %20

17:                                               ; preds = %3
  %18 = load i64, ptr %7, align 8, !tbaa !11
  %19 = icmp sle i64 %18, 2
  br i1 %19, label %25, label %20

20:                                               ; preds = %17, %3
  %21 = load i64, ptr %7, align 8, !tbaa !11
  %22 = call i32 @_PyArg_CheckPositional(ptr noundef @.str.7, i64 noundef %21, i64 noundef 1, i64 noundef 2)
  %23 = icmp ne i32 %22, 0
  br i1 %23, label %25, label %24

24:                                               ; preds = %20
  br label %107

25:                                               ; preds = %20, %17
  %26 = load ptr, ptr %6, align 8, !tbaa !13
  %27 = getelementptr ptr, ptr %26, i64 0
  %28 = load ptr, ptr %27, align 8, !tbaa !4
  %29 = call ptr @_Py_TYPE(ptr noundef %28)
  %30 = call i32 @PyType_HasFeature(ptr noundef %29, i64 noundef 268435456)
  %31 = icmp ne i32 %30, 0
  br i1 %31, label %32, label %53

32:                                               ; preds = %25
  call void @llvm.lifetime.start.p0(i64 8, ptr %11) #6
  call void @llvm.lifetime.start.p0(i64 8, ptr %12) #6
  %33 = load ptr, ptr %6, align 8, !tbaa !13
  %34 = getelementptr ptr, ptr %33, i64 0
  %35 = load ptr, ptr %34, align 8, !tbaa !4
  %36 = call ptr @PyUnicode_AsUTF8AndSize(ptr noundef %35, ptr noundef %11)
  store ptr %36, ptr %12, align 8, !tbaa !9
  %37 = load ptr, ptr %12, align 8, !tbaa !9
  %38 = icmp eq ptr %37, null
  br i1 %38, label %39, label %40

39:                                               ; preds = %32
  store i32 2, ptr %13, align 4
  br label %50

40:                                               ; preds = %32
  %41 = load ptr, ptr %6, align 8, !tbaa !13
  %42 = getelementptr ptr, ptr %41, i64 0
  %43 = load ptr, ptr %42, align 8, !tbaa !4
  %44 = load ptr, ptr %12, align 8, !tbaa !9
  %45 = load i64, ptr %11, align 8, !tbaa !11
  %46 = call i32 @PyBuffer_FillInfo(ptr noundef %9, ptr noundef %43, ptr noundef %44, i64 noundef %45, i32 noundef 1, i32 noundef 0)
  %47 = icmp slt i32 %46, 0
  br i1 %47, label %48, label %49

48:                                               ; preds = %40
  store i32 2, ptr %13, align 4
  br label %50

49:                                               ; preds = %40
  store i32 0, ptr %13, align 4
  br label %50

50:                                               ; preds = %48, %39, %49
  call void @llvm.lifetime.end.p0(i64 8, ptr %12) #6
  call void @llvm.lifetime.end.p0(i64 8, ptr %11) #6
  %51 = load i32, ptr %13, align 4
  switch i32 %51, label %114 [
    i32 0, label %52
    i32 2, label %107
  ]

52:                                               ; preds = %50
  br label %61

53:                                               ; preds = %25
  %54 = load ptr, ptr %6, align 8, !tbaa !13
  %55 = getelementptr ptr, ptr %54, i64 0
  %56 = load ptr, ptr %55, align 8, !tbaa !4
  %57 = call i32 @PyObject_GetBuffer(ptr noundef %56, ptr noundef %9, i32 noundef 0)
  %58 = icmp ne i32 %57, 0
  br i1 %58, label %59, label %60

59:                                               ; preds = %53
  br label %107

60:                                               ; preds = %53
  br label %61

61:                                               ; preds = %60, %52
  %62 = load i64, ptr %7, align 8, !tbaa !11
  %63 = icmp slt i64 %62, 2
  br i1 %63, label %64, label %65

64:                                               ; preds = %61
  br label %103

65:                                               ; preds = %61
  %66 = load ptr, ptr %6, align 8, !tbaa !13
  %67 = getelementptr ptr, ptr %66, i64 1
  %68 = load ptr, ptr %67, align 8, !tbaa !4
  %69 = icmp eq ptr %68, @_Py_NoneStruct
  br i1 %69, label %70, label %71

70:                                               ; preds = %65
  store ptr null, ptr %10, align 8, !tbaa !9
  br label %102

71:                                               ; preds = %65
  %72 = load ptr, ptr %6, align 8, !tbaa !13
  %73 = getelementptr ptr, ptr %72, i64 1
  %74 = load ptr, ptr %73, align 8, !tbaa !4
  %75 = call ptr @_Py_TYPE(ptr noundef %74)
  %76 = call i32 @PyType_HasFeature(ptr noundef %75, i64 noundef 268435456)
  %77 = icmp ne i32 %76, 0
  br i1 %77, label %78, label %97

78:                                               ; preds = %71
  call void @llvm.lifetime.start.p0(i64 8, ptr %14) #6
  %79 = load ptr, ptr %6, align 8, !tbaa !13
  %80 = getelementptr ptr, ptr %79, i64 1
  %81 = load ptr, ptr %80, align 8, !tbaa !4
  %82 = call ptr @PyUnicode_AsUTF8AndSize(ptr noundef %81, ptr noundef %14)
  store ptr %82, ptr %10, align 8, !tbaa !9
  %83 = load ptr, ptr %10, align 8, !tbaa !9
  %84 = icmp eq ptr %83, null
  br i1 %84, label %85, label %86

85:                                               ; preds = %78
  store i32 2, ptr %13, align 4
  br label %94

86:                                               ; preds = %78
  %87 = load ptr, ptr %10, align 8, !tbaa !9
  %88 = call i64 @strlen(ptr noundef %87) #7
  %89 = load i64, ptr %14, align 8, !tbaa !11
  %90 = icmp ne i64 %88, %89
  br i1 %90, label %91, label %93

91:                                               ; preds = %86
  %92 = load ptr, ptr @PyExc_ValueError, align 8, !tbaa !4
  call void @PyErr_SetString(ptr noundef %92, ptr noundef @.str.44)
  store i32 2, ptr %13, align 4
  br label %94

93:                                               ; preds = %86
  store i32 0, ptr %13, align 4
  br label %94

94:                                               ; preds = %91, %85, %93
  call void @llvm.lifetime.end.p0(i64 8, ptr %14) #6
  %95 = load i32, ptr %13, align 4
  switch i32 %95, label %114 [
    i32 0, label %96
    i32 2, label %107
  ]

96:                                               ; preds = %94
  br label %101

97:                                               ; preds = %71
  %98 = load ptr, ptr %6, align 8, !tbaa !13
  %99 = getelementptr ptr, ptr %98, i64 1
  %100 = load ptr, ptr %99, align 8, !tbaa !4
  call void @_PyArg_BadArgument(ptr noundef @.str.7, ptr noundef @.str.52, ptr noundef @.str.53, ptr noundef %100)
  br label %107

101:                                              ; preds = %96
  br label %102

102:                                              ; preds = %101, %70
  br label %103

103:                                              ; preds = %102, %64
  %104 = load ptr, ptr %5, align 8, !tbaa !4
  %105 = load ptr, ptr %10, align 8, !tbaa !9
  %106 = call ptr @_codecs_escape_decode_impl(ptr noundef %104, ptr noundef %9, ptr noundef %105)
  store ptr %106, ptr %8, align 8, !tbaa !4
  br label %107

107:                                              ; preds = %103, %94, %50, %97, %59, %24
  %108 = getelementptr inbounds nuw %struct.Py_buffer, ptr %9, i32 0, i32 1
  %109 = load ptr, ptr %108, align 8, !tbaa !15
  %110 = icmp ne ptr %109, null
  br i1 %110, label %111, label %112

111:                                              ; preds = %107
  call void @PyBuffer_Release(ptr noundef %9)
  br label %112

112:                                              ; preds = %111, %107
  %113 = load ptr, ptr %8, align 8, !tbaa !4
  store ptr %113, ptr %4, align 8
  store i32 1, ptr %13, align 4
  br label %114

114:                                              ; preds = %112, %94, %50
  call void @llvm.lifetime.end.p0(i64 8, ptr %10) #6
  call void @llvm.lifetime.end.p0(i64 80, ptr %9) #6
  call void @llvm.lifetime.end.p0(i64 8, ptr %8) #6
  %115 = load ptr, ptr %4, align 8
  ret ptr %115
}